target datalayout = "e-m:e-p270:32:32-p271:32:32-p272:64:64-i64:64-i128:128-f80:128-n8:16:32:64-S128"
target triple = "x86_64-pc-linux-gnu"

%struct.string_list = type { ptr, i64, i64, i8, ptr }
%struct.string_list_item = type { ptr, ptr }

; Function Attrs: nounwind uwtable
define internal i32 @get_entry_index(ptr noundef %0, ptr noundef %1, ptr noundef %2) #0 {
  %4 = alloca i32, align 4
  %5 = alloca ptr, align 8
  %6 = alloca ptr, align 8
  %7 = alloca ptr, align 8
  %8 = alloca i32, align 4
  %9 = alloca i32, align 4
  %10 = alloca ptr, align 8
  %11 = alloca i32, align 4
  %12 = alloca i32, align 4
  %13 = alloca i32, align 4
  store ptr %0, ptr %5, align 8, !tbaa !4
  store ptr %1, ptr %6, align 8, !tbaa !9
  store ptr %2, ptr %7, align 8, !tbaa !22
  call void @llvm.lifetime.start.p0(i64 4, ptr %8) #9
  store i32 -1, ptr %8, align 4, !tbaa !11
  call void @llvm.lifetime.start.p0(i64 4, ptr %9) #9
  %14 = load ptr, ptr %5, align 8, !tbaa !4
  %15 = getelementptr inbounds nuw %struct.string_list, ptr %14, i32 0, i32 1
  %16 = load i64, ptr %15, align 8, !tbaa !17
  %17 = trunc i64 %16 to i32
  store i32 %17, ptr %9, align 4, !tbaa !11
  call void @llvm.lifetime.start.p0(i64 8, ptr %10) #9
  %18 = load ptr, ptr %5, align 8, !tbaa !4
  %19 = getelementptr inbounds nuw %struct.string_list, ptr %18, i32 0, i32 4
  %20 = load ptr, ptr %19, align 8, !tbaa !24
  %21 = icmp ne ptr %20, null
  br i1 %21, label %22, label %26

22:                                               ; preds = %3
  %23 = load ptr, ptr %5, align 8, !tbaa !4
  %24 = getelementptr inbounds nuw %struct.string_list, ptr %23, i32 0, i32 4
  %25 = load ptr, ptr %24, align 8, !tbaa !24
  br label %27

26:                                               ; preds = %3
  br label %27

27:                                               ; preds = %26, %22
  %28 = phi ptr [ %25, %22 ], [ @strcmp, %26 ]
  store ptr %28, ptr %10, align 8, !tbaa !25
  br label %29

29:                                               ; preds = %68, %27
  %30 = load i32, ptr %8, align 4, !tbaa !11
  %31 = add nsw i32 %30, 1
  %32 = load i32, ptr %9, align 4, !tbaa !11
  %33 = icmp slt i32 %31, %32
  br i1 %33, label %34, label %69

34:                                               ; preds = %29
  call void @llvm.lifetime.start.p0(i64 4, ptr %11) #9
  %35 = load i32, ptr %8, align 4, !tbaa !11
  %36 = load i32, ptr %9, align 4, !tbaa !11
  %37 = load i32, ptr %8, align 4, !tbaa !11
  %38 = sub nsw i32 %36, %37
  %39 = sdiv i32 %38, 2
  %40 = add nsw i32 %35, %39
  store i32 %40, ptr %11, align 4, !tbaa !11
  call void @llvm.lifetime.start.p0(i64 4, ptr %12) #9
  %41 = load ptr, ptr %10, align 8, !tbaa !25
  %42 = load ptr, ptr %6, align 8, !tbaa !9
  %43 = load ptr, ptr %5, align 8, !tbaa !4
  %44 = getelementptr inbounds nuw %struct.string_list, ptr %43, i32 0, i32 0
  %45 = load ptr, ptr %44, align 8, !tbaa !13
  %46 = load i32, ptr %11, align 4, !tbaa !11
  %47 = sext i32 %46 to i64
  %48 = getelementptr inbounds %struct.string_list_item, ptr %45, i64 %47
  %49 = getelementptr inbounds nuw %struct.string_list_item, ptr %48, i32 0, i32 0
  %50 = load ptr, ptr %49, align 8, !tbaa !19
  %51 = call i32 %41(ptr noundef %42, ptr noundef %50)
  store i32 %51, ptr %12, align 4, !tbaa !11
  %52 = load i32, ptr %12, align 4, !tbaa !11
  %53 = icmp slt i32 %52, 0
  br i1 %53, label %54, label %56

54:                                               ; preds = %34
  %55 = load i32, ptr %11, align 4, !tbaa !11
  store i32 %55, ptr %9, align 4, !tbaa !11
  br label %65

56:                                               ; preds = %34
  %57 = load i32, ptr %12, align 4, !tbaa !11
  %58 = icmp sgt i32 %57, 0
  br i1 %58, label %59, label %61

59:                                               ; preds = %56
  %60 = load i32, ptr %11, align 4, !tbaa !11
  store i32 %60, ptr %8, align 4, !tbaa !11
  br label %64

61:                                               ; preds = %56
  %62 = load ptr, ptr %7, align 8, !tbaa !22
  store i32 1, ptr %62, align 4, !tbaa !11
  %63 = load i32, ptr %11, align 4, !tbaa !11
  store i32 %63, ptr %4, align 4
  store i32 1, ptr %13, align 4
  br label %66

64:                                               ; preds = %59
  br label %65

65:                                               ; preds = %64, %54
  store i32 0, ptr %13, align 4
  br label %66

66:                                               ; preds = %65, %61
  call void @llvm.lifetime.end.p0(i64 4, ptr %12) #9
  call void @llvm.lifetime.end.p0(i64 4, ptr %11) #9
  %67 = load i32, ptr %13, align 4
  switch i32 %67, label %72 [
    i32 0, label %68
  ]

68:                                               ; preds = %66
  br label %29, !llvm.loop !26

69:                                               ; preds = %29
  %70 = load ptr, ptr %7, align 8, !tbaa !22
  store i32 0, ptr %70, align 4, !tbaa !11
  %71 = load i32, ptr %9, align 4, !tbaa !11
  store i32 %71, ptr %4, align 4
  store i32 1, ptr %13, align 4
  br label %72

72:                                               ; preds = %69, %66
  call void @llvm.lifetime.end.p0(i64 8, ptr %10) #9
  call void @llvm.lifetime.end.p0(i64 4, ptr %9) #9
  call void @llvm.lifetime.end.p0(i64 4, ptr %8) #9
  %73 = load i32, ptr %4, align 4
  ret i32 %73
}

; Function Attrs: nounwind uwtable
define dso_local i32 @string_list_has_string(ptr noundef %0, ptr noundef %1) #0 {
  %3 = alloca ptr, align 8
  %4 = alloca ptr, align 8
  %5 = alloca i32, align 4
  store ptr %0, ptr %3, align 8, !tbaa !4
  store ptr %1, ptr %4, align 8, !tbaa !9
  call void @llvm.lifetime.start.p0(i64 4, ptr %5) #9
  %6 = load ptr, ptr %3, align 8, !tbaa !4
  %7 = load ptr, ptr %4, align 8, !tbaa !9
  %8 = call i32 @get_entry_index(ptr noundef %6, ptr noundef %7, ptr noundef %5)
  %9 = load i32, ptr %5, align 4, !tbaa !11
  call void @llvm.lifetime.end.p0(i64 4, ptr %5) #9
  ret i32 %9
}